; Function Attrs: mustprogress uwtable
define void @_ZNK32pxrInternal_v0_24__pxrReserved__26PcpErrorUnresolvedPrimPath8ToStringB5cxx11Ev(ptr dead_on_unwind noalias writable sret(%"class.std::__cxx11::basic_string") align 8 %0, ptr noundef nonnull align 8 dereferenceable(236) %1) unnamed_addr #0 align 2 personality ptr @__gxx_personality_v0 {
  %3 = alloca %"class.std::__cxx11::basic_ostringstream", align 8
  %4 = alloca %"class.std::__cxx11::basic_ostringstream", align 8
  %5 = alloca %"class.std::__cxx11::basic_string", align 8
  %6 = alloca %"class.std::__cxx11::basic_string", align 8
  %7 = alloca %"class.pxrInternal_v0_24__pxrReserved__::PcpSite", align 8
  %8 = alloca %"class.std::__cxx11::basic_string", align 8
  %9 = alloca %"class.pxrInternal_v0_24__pxrReserved__::PcpSite", align 8
  %10 = getelementptr inbounds nuw i8, ptr %1, i64 232
  %11 = load i32, ptr %10, align 8
  call void @_ZN32pxrInternal_v0_24__pxrReserved__6TfEnum14GetDisplayNameB5cxx11ES0_(ptr dead_on_unwind nonnull writable sret(%"class.std::__cxx11::basic_string") align 8 %5, ptr nonnull @_ZTIN32pxrInternal_v0_24__pxrReserved__10PcpArcTypeE, i32 %11)
  %12 = call noundef ptr @_ZNKSt7__cxx1112basic_stringIcSt11char_traitsIcESaIcEE5c_strEv(ptr noundef nonnull align 8 dereferenceable(32) %5) #19
  %13 = getelementptr inbounds nuw i8, ptr %1, i64 208
  %14 = getelementptr inbounds nuw i8, ptr %1, i64 224
  invoke void @_ZN32pxrInternal_v0_24__pxrReserved__7PcpSiteC1ERKNS_9TfWeakPtrINS_8SdfLayerEEERKNS_7SdfPathE(ptr noundef nonnull align 8 dereferenceable(88) %7, ptr noundef nonnull align 8 dereferenceable(16) %13, ptr noundef nonnull align 4 dereferenceable(8) %14)
          to label %15 unwind label %70

15:                                               ; preds = %2
  call void @llvm.lifetime.start.p0(i64 376, ptr nonnull %4)
  invoke void @_ZNSt7__cxx1119basic_ostringstreamIcSt11char_traitsIcESaIcEEC1Ev(ptr noundef nonnull align 8 dereferenceable(112) %4)
          to label %.noexc unwind label %72

.noexc:                                           ; preds = %15
  %16 = invoke noundef nonnull align 8 dereferenceable(8) ptr @_ZN32pxrInternal_v0_24__pxrReserved__lsERSoRKNS_7PcpSiteE(ptr noundef nonnull align 8 dereferenceable(8) %4, ptr noundef nonnull align 8 dereferenceable(88) %7)
          to label %17 unwind label %18, !noalias !56

17:                                               ; preds = %.noexc
  invoke void @_ZNKSt7__cxx1119basic_ostringstreamIcSt11char_traitsIcESaIcEE3strEv(ptr dead_on_unwind nonnull writable sret(%"class.std::__cxx11::basic_string") align 8 %6, ptr noundef nonnull align 8 dereferenceable(112) %4)
          to label %20 unwind label %18

18:                                               ; preds = %17, %.noexc
  %19 = landingpad { ptr, i32 }
          cleanup
  call void @_ZNSt7__cxx1119basic_ostringstreamIcSt11char_traitsIcESaIcEED1Ev(ptr noundef nonnull align 8 dereferenceable(112) %4) #19
  br label %.body

20:                                               ; preds = %17
  call void @_ZNSt7__cxx1119basic_ostringstreamIcSt11char_traitsIcESaIcEED1Ev(ptr noundef nonnull align 8 dereferenceable(112) %4) #19
  call void @llvm.lifetime.end.p0(i64 376, ptr nonnull %4)
  %21 = call noundef ptr @_ZNKSt7__cxx1112basic_stringIcSt11char_traitsIcESaIcEE5c_strEv(ptr noundef nonnull align 8 dereferenceable(32) %6) #19
  %22 = getelementptr inbounds nuw i8, ptr %1, i64 192
  %23 = getelementptr inbounds i8, ptr %1, i64 184
  invoke void @_ZN32pxrInternal_v0_24__pxrReserved__7PcpSiteC1ERKNS_9TfWeakPtrINS_8SdfLayerEEERKNS_7SdfPathE(ptr noundef nonnull align 8 dereferenceable(88) %9, ptr noundef nonnull align 8 dereferenceable(16) %22, ptr noundef nonnull align 4 dereferenceable(8) %23)
          to label %24 unwind label %74

24:                                               ; preds = %20
  call void @llvm.lifetime.start.p0(i64 376, ptr nonnull %3)
  invoke void @_ZNSt7__cxx1119basic_ostringstreamIcSt11char_traitsIcESaIcEEC1Ev(ptr noundef nonnull align 8 dereferenceable(112) %3)
          to label %.noexc10 unwind label %76

.noexc10:                                         ; preds = %24
  %25 = invoke noundef nonnull align 8 dereferenceable(8) ptr @_ZN32pxrInternal_v0_24__pxrReserved__lsERSoRKNS_7PcpSiteE(ptr noundef nonnull align 8 dereferenceable(8) %3, ptr noundef nonnull align 8 dereferenceable(88) %9)
          to label %26 unwind label %27, !noalias !59

26:                                               ; preds = %.noexc10
  invoke void @_ZNKSt7__cxx1119basic_ostringstreamIcSt11char_traitsIcESaIcEE3strEv(ptr dead_on_unwind nonnull writable sret(%"class.std::__cxx11::basic_string") align 8 %8, ptr noundef nonnull align 8 dereferenceable(112) %3)
          to label %29 unwind label %27

27:                                               ; preds = %26, %.noexc10
  %28 = landingpad { ptr, i32 }
          cleanup
  call void @_ZNSt7__cxx1119basic_ostringstreamIcSt11char_traitsIcESaIcEED1Ev(ptr noundef nonnull align 8 dereferenceable(112) %3) #19
  br label %.body11

29:                                               ; preds = %26
  call void @_ZNSt7__cxx1119basic_ostringstreamIcSt11char_traitsIcESaIcEED1Ev(ptr noundef nonnull align 8 dereferenceable(112) %3) #19
  call void @llvm.lifetime.end.p0(i64 376, ptr nonnull %3)
  %30 = call noundef ptr @_ZNKSt7__cxx1112basic_stringIcSt11char_traitsIcESaIcEE5c_strEv(ptr noundef nonnull align 8 dereferenceable(32) %8) #19
  invoke void (ptr, ptr, ...) @_ZN32pxrInternal_v0_24__pxrReserved__14TfStringPrintfB5cxx11EPKcz(ptr dead_on_unwind writable sret(%"class.std::__cxx11::basic_string") align 8 %0, ptr noundef nonnull @.str.58, ptr noundef %12, ptr noundef %21, ptr noundef %30)
          to label %31 unwind label %78

31:                                               ; preds = %29
  call void @_ZNSt7__cxx1112basic_stringIcSt11char_traitsIcESaIcEED1Ev(ptr noundef nonnull align 8 dereferenceable(32) %8) #19
  %32 = getelementptr inbounds nuw i8, ptr %9, i64 80
  %33 = load i32, ptr %32, align 8
  %.not.i.i.i = icmp eq i32 %33, 0
  br i1 %.not.i.i.i, label %_ZN32pxrInternal_v0_24__pxrReserved__7PcpSiteD2Ev.exit, label %34

34:                                               ; preds = %31
  %35 = and i32 %33, 255
  %36 = lshr i32 %33, 8
  %37 = zext nneg i32 %35 to i64
  %38 = getelementptr inbounds [257 x ptr], ptr @_ZN32pxrInternal_v0_24__pxrReserved__8Sdf_PoolINS_15Sdf_PathPrimTagELj24ELj8ELj16384EE13_regionStartsE, i64 0, i64 %37
  %39 = load ptr, ptr %38, align 8
  %40 = mul nuw nsw i32 %36, 24
  %41 = zext nneg i32 %40 to i64
  %42 = getelementptr inbounds i8, ptr %39, i64 %41
  %43 = getelementptr inbounds nuw i8, ptr %42, i64 8
  %44 = atomicrmw sub ptr %43, i32 1 seq_cst, align 4
  %45 = and i32 %44, 2147483647
  %46 = icmp eq i32 %45, 1
  br i1 %46, label %47, label %_ZN32pxrInternal_v0_24__pxrReserved__7PcpSiteD2Ev.exit

47:                                               ; preds = %34
  invoke void @_ZNK32pxrInternal_v0_24__pxrReserved__12Sdf_PathNode8_DestroyEv(ptr noundef nonnull align 8 dereferenceable(16) %42)
          to label %_ZN32pxrInternal_v0_24__pxrReserved__7PcpSiteD2Ev.exit unwind label %48

48:                                               ; preds = %47
  %49 = landingpad { ptr, i32 }
          catch ptr null
  %50 = extractvalue { ptr, i32 } %49, 0
  call void @__clang_call_terminate(ptr %50) #18
  unreachable

_ZN32pxrInternal_v0_24__pxrReserved__7PcpSiteD2Ev.exit: ; preds = %31, %34, %47
  call void @_ZN32pxrInternal_v0_24__pxrReserved__23PcpLayerStackIdentifierD2Ev(ptr noundef nonnull align 8 dereferenceable(80) %9) #19
  call void @_ZNSt7__cxx1112basic_stringIcSt11char_traitsIcESaIcEED1Ev(ptr noundef nonnull align 8 dereferenceable(32) %6) #19
  %51 = getelementptr inbounds nuw i8, ptr %7, i64 80
  %52 = load i32, ptr %51, align 8
  %.not.i.i.i14 = icmp eq i32 %52, 0
  br i1 %.not.i.i.i14, label %_ZN32pxrInternal_v0_24__pxrReserved__7PcpSiteD2Ev.exit15, label %53

53:                                               ; preds = %_ZN32pxrInternal_v0_24__pxrReserved__7PcpSiteD2Ev.exit
  %54 = and i32 %52, 255
  %55 = lshr i32 %52, 8
  %56 = zext nneg i32 %54 to i64
  %57 = getelementptr inbounds [257 x ptr], ptr @_ZN32pxrInternal_v0_24__pxrReserved__8Sdf_PoolINS_15Sdf_PathPrimTagELj24ELj8ELj16384EE13_regionStartsE, i64 0, i64 %56
  %58 = load ptr, ptr %57, align 8
  %59 = mul nuw nsw i32 %55, 24
  %60 = zext nneg i32 %59 to i64
  %61 = getelementptr inbounds i8, ptr %58, i64 %60
  %62 = getelementptr inbounds nuw i8, ptr %61, i64 8
  %63 = atomicrmw sub ptr %62, i32 1 seq_cst, align 4
  %64 = and i32 %63, 2147483647
  %65 = icmp eq i32 %64, 1
  br i1 %65, label %66, label %_ZN32pxrInternal_v0_24__pxrReserved__7PcpSiteD2Ev.exit15

66:                                               ; preds = %53
  invoke void @_ZNK32pxrInternal_v0_24__pxrReserved__12Sdf_PathNode8_DestroyEv(ptr noundef nonnull align 8 dereferenceable(16) %61)
          to label %_ZN32pxrInternal_v0_24__pxrReserved__7PcpSiteD2Ev.exit15 unwind label %67

67:                                               ; preds = %66
  %68 = landingpad { ptr, i32 }
          catch ptr null
  %69 = extractvalue { ptr, i32 } %68, 0
  call void @__clang_call_terminate(ptr %69) #18
  unreachable

_ZN32pxrInternal_v0_24__pxrReserved__7PcpSiteD2Ev.exit15: ; preds = %_ZN32pxrInternal_v0_24__pxrReserved__7PcpSiteD2Ev.exit, %53, %66
  call void @_ZN32pxrInternal_v0_24__pxrReserved__23PcpLayerStackIdentifierD2Ev(ptr noundef nonnull align 8 dereferenceable(80) %7) #19
  call void @_ZNSt7__cxx1112basic_stringIcSt11char_traitsIcESaIcEED1Ev(ptr noundef nonnull align 8 dereferenceable(32) %5) #19
  ret void

70:                                               ; preds = %2
  %71 = landingpad { ptr, i32 }
          cleanup
  br label %81

72:                                               ; preds = %15
  %73 = landingpad { ptr, i32 }
          cleanup
  br label %.body

74:                                               ; preds = %20
  %75 = landingpad { ptr, i32 }
          cleanup
  br label %80

76:                                               ; preds = %24
  %77 = landingpad { ptr, i32 }
          cleanup
  br label %.body11

78:                                               ; preds = %29
  %79 = landingpad { ptr, i32 }
          cleanup
  call void @_ZNSt7__cxx1112basic_stringIcSt11char_traitsIcESaIcEED1Ev(ptr noundef nonnull align 8 dereferenceable(32) %8) #19
  br label %.body11

.body11:                                          ; preds = %76, %27, %78
  %.pn = phi { ptr, i32 } [ %79, %78 ], [ %77, %76 ], [ %28, %27 ]
  call void @_ZN32pxrInternal_v0_24__pxrReserved__7PcpSiteD2Ev(ptr noundef nonnull align 8 dereferenceable(88) %9) #19
  br label %80

80:                                               ; preds = %.body11, %74
  %.pn.pn = phi { ptr, i32 } [ %.pn, %.body11 ], [ %75, %74 ]
  call void @_ZNSt7__cxx1112basic_stringIcSt11char_traitsIcESaIcEED1Ev(ptr noundef nonnull align 8 dereferenceable(32) %6) #19
  br label %.body

.body:                                            ; preds = %72, %18, %80
  %.pn.pn.pn = phi { ptr, i32 } [ %.pn.pn, %80 ], [ %73, %72 ], [ %19, %18 ]
  call void @_ZN32pxrInternal_v0_24__pxrReserved__7PcpSiteD2Ev(ptr noundef nonnull align 8 dereferenceable(88) %7) #19
  br label %81

81:                                               ; preds = %.body, %70
  %.pn.pn.pn.pn = phi { ptr, i32 } [ %.pn.pn.pn, %.body ], [ %71, %70 ]
  call void @_ZNSt7__cxx1112basic_stringIcSt11char_traitsIcESaIcEED1Ev(ptr noundef nonnull align 8 dereferenceable(32) %5) #19
  resume { ptr, i32 } %.pn.pn.pn.pn
}